target datalayout = "e-m:e-p270:32:32-p271:32:32-p272:64:64-i64:64-i128:128-f80:128-n8:16:32:64-S128"
target triple = "x86_64-pc-linux-gnu"

%struct.asn1_pctx_st = type { i64, i64, i64, i64, i64 }

; Function Attrs: nounwind uwtable
define internal i32 @x509_name_ex_print(ptr noundef %0, ptr noundef %1, i32 noundef %2, ptr noundef %3, ptr noundef %4) #0 {
  %6 = alloca i32, align 4
  %7 = alloca ptr, align 8
  %8 = alloca ptr, align 8
  %9 = alloca i32, align 4
  %10 = alloca ptr, align 8
  %11 = alloca ptr, align 8
  store ptr %0, ptr %7, align 8, !tbaa !18
  store ptr %1, ptr %8, align 8, !tbaa !34
  store i32 %2, ptr %9, align 4, !tbaa !20
  store ptr %3, ptr %10, align 8, !tbaa !22
  store ptr %4, ptr %11, align 8, !tbaa !53
  %12 = load ptr, ptr %7, align 8, !tbaa !18
  %13 = load ptr, ptr %8, align 8, !tbaa !34
  %14 = load ptr, ptr %13, align 8, !tbaa !40
  %15 = load i32, ptr %9, align 4, !tbaa !20
  %16 = load ptr, ptr %11, align 8, !tbaa !53
  %17 = getelementptr inbounds nuw %struct.asn1_pctx_st, ptr %16, i32 0, i32 1
  %18 = load i64, ptr %17, align 8, !tbaa !55
  %19 = call i32 @X509_NAME_print_ex(ptr noundef %12, ptr noundef %14, i32 noundef %15, i64 noundef %18)
  %20 = icmp sle i32 %19, 0
  br i1 %20, label %21, label %22

21:                                               ; preds = %5
  store i32 0, ptr %6, align 4
  br label %23

22:                                               ; preds = %5
  store i32 2, ptr %6, align 4
  br label %23

23:                                               ; preds = %22, %21
  %24 = load i32, ptr %6, align 4
  ret i32 %24
}