; Function Attrs: nounwind uwtable
define internal range(i32 0, 3) i32 @x509_name_ex_print(ptr noundef %0, ptr noundef readonly captures(none) %1, i32 noundef %2, ptr readnone captures(none) %3, ptr noundef readonly captures(none) %4) #1 {
  %6 = load ptr, ptr %1, align 8, !tbaa !23
  %7 = getelementptr inbounds nuw i8, ptr %4, i64 8
  %8 = load i64, ptr %7, align 8, !tbaa !34
  %9 = tail call i32 @X509_NAME_print_ex(ptr noundef %0, ptr noundef %6, i32 noundef %2, i64 noundef %8) #6
  %.inv = icmp sgt i32 %9, 0
  %. = select i1 %.inv, i32 2, i32 0
  ret i32 %.
}